target datalayout = "e-m:e-p270:32:32-p271:32:32-p272:64:64-i64:64-i128:128-f80:128-n8:16:32:64-S128"
target triple = "x86_64-pc-linux-gnu"

%struct.mlib_affine_param = type { ptr, ptr, ptr, ptr, ptr, ptr, ptr, ptr, ptr, i32, i32, i32, i32, i32, i32, i32, ptr, i32 }

; Function Attrs: nounwind uwtable
define hidden i32 @mlib_ImageAffine_u8_1ch_bl(ptr noundef %0) #0 {
  %2 = alloca ptr, align 8
  %3 = alloca ptr, align 8
  %4 = alloca ptr, align 8
  %5 = alloca ptr, align 8
  %6 = alloca ptr, align 8
  %7 = alloca ptr, align 8
  %8 = alloca ptr, align 8
  %9 = alloca i32, align 4
  %10 = alloca i32, align 4
  %11 = alloca i32, align 4
  %12 = alloca i32, align 4
  %13 = alloca i32, align 4
  %14 = alloca i32, align 4
  %15 = alloca i32, align 4
  %16 = alloca i32, align 4
  %17 = alloca i32, align 4
  %18 = alloca i32, align 4
  %19 = alloca ptr, align 8
  %20 = alloca ptr, align 8
  %21 = alloca ptr, align 8
  %22 = alloca i32, align 4
  %23 = alloca i32, align 4
  %24 = alloca i32, align 4
  %25 = alloca ptr, align 8
  %26 = alloca ptr, align 8
  %27 = alloca i32, align 4
  %28 = alloca i32, align 4
  %29 = alloca i32, align 4
  %30 = alloca i32, align 4
  %31 = alloca i32, align 4
  %32 = alloca i32, align 4
  %33 = alloca i32, align 4
  %34 = alloca i32, align 4
  %35 = alloca i32, align 4
  store ptr %0, ptr %2, align 8
  %36 = load ptr, ptr %2, align 8
  %37 = getelementptr inbounds %struct.mlib_affine_param, ptr %36, i32 0, i32 5
  %38 = load ptr, ptr %37, align 8
  store ptr %38, ptr %3, align 8
  %39 = load ptr, ptr %2, align 8
  %40 = getelementptr inbounds %struct.mlib_affine_param, ptr %39, i32 0, i32 6
  %41 = load ptr, ptr %40, align 8
  store ptr %41, ptr %4, align 8
  %42 = load ptr, ptr %2, align 8
  %43 = getelementptr inbounds %struct.mlib_affine_param, ptr %42, i32 0, i32 7
  %44 = load ptr, ptr %43, align 8
  store ptr %44, ptr %5, align 8
  %45 = load ptr, ptr %2, align 8
  %46 = getelementptr inbounds %struct.mlib_affine_param, ptr %45, i32 0, i32 8
  %47 = load ptr, ptr %46, align 8
  store ptr %47, ptr %6, align 8
  %48 = load ptr, ptr %2, align 8
  %49 = getelementptr inbounds %struct.mlib_affine_param, ptr %48, i32 0, i32 4
  %50 = load ptr, ptr %49, align 8
  store ptr %50, ptr %7, align 8
  %51 = load ptr, ptr %2, align 8
  %52 = getelementptr inbounds %struct.mlib_affine_param, ptr %51, i32 0, i32 3
  %53 = load ptr, ptr %52, align 8
  store ptr %53, ptr %8, align 8
  %54 = load ptr, ptr %2, align 8
  %55 = getelementptr inbounds %struct.mlib_affine_param, ptr %54, i32 0, i32 15
  %56 = load i32, ptr %55, align 8
  store i32 %56, ptr %9, align 4
  %57 = load ptr, ptr %2, align 8
  %58 = getelementptr inbounds %struct.mlib_affine_param, ptr %57, i32 0, i32 9
  %59 = load i32, ptr %58, align 8
  store i32 %59, ptr %14, align 4
  %60 = load ptr, ptr %2, align 8
  %61 = getelementptr inbounds %struct.mlib_affine_param, ptr %60, i32 0, i32 10
  %62 = load i32, ptr %61, align 4
  store i32 %62, ptr %15, align 4
  %63 = load ptr, ptr %2, align 8
  %64 = getelementptr inbounds %struct.mlib_affine_param, ptr %63, i32 0, i32 11
  %65 = load i32, ptr %64, align 8
  store i32 %65, ptr %16, align 4
  %66 = load ptr, ptr %2, align 8
  %67 = getelementptr inbounds %struct.mlib_affine_param, ptr %66, i32 0, i32 12
  %68 = load i32, ptr %67, align 4
  store i32 %68, ptr %17, align 4
  %69 = load ptr, ptr %2, align 8
  %70 = getelementptr inbounds %struct.mlib_affine_param, ptr %69, i32 0, i32 16
  %71 = load ptr, ptr %70, align 8
  store ptr %71, ptr %19, align 8
  %72 = load ptr, ptr %2, align 8
  %73 = getelementptr inbounds %struct.mlib_affine_param, ptr %72, i32 0, i32 14
  %74 = load i32, ptr %73, align 4
  store i32 %74, ptr %24, align 4
  %75 = load i32, ptr %14, align 4
  store i32 %75, ptr %18, align 4
  br label %76

76:                                               ; preds = %295, %1
  %77 = load i32, ptr %18, align 4
  %78 = load i32, ptr %15, align 4
  %79 = icmp sle i32 %77, %78
  br i1 %79, label %80, label %298

80:                                               ; preds = %76
  %81 = load i32, ptr %9, align 4
  %82 = load ptr, ptr %7, align 8
  %83 = sext i32 %81 to i64
  %84 = getelementptr inbounds i8, ptr %82, i64 %83
  store ptr %84, ptr %7, align 8
  %85 = load ptr, ptr %3, align 8
  %86 = load i32, ptr %18, align 4
  %87 = sext i32 %86 to i64
  %88 = getelementptr inbounds i32, ptr %85, i64 %87
  %89 = load i32, ptr %88, align 4
  store i32 %89, ptr %10, align 4
  %90 = load ptr, ptr %4, align 8
  %91 = load i32, ptr %18, align 4
  %92 = sext i32 %91 to i64
  %93 = getelementptr inbounds i32, ptr %90, i64 %92
  %94 = load i32, ptr %93, align 4
  store i32 %94, ptr %11, align 4
  %95 = load ptr, ptr %5, align 8
  %96 = load i32, ptr %18, align 4
  %97 = sext i32 %96 to i64
  %98 = getelementptr inbounds i32, ptr %95, i64 %97
  %99 = load i32, ptr %98, align 4
  store i32 %99, ptr %12, align 4
  %100 = load ptr, ptr %6, align 8
  %101 = load i32, ptr %18, align 4
  %102 = sext i32 %101 to i64
  %103 = getelementptr inbounds i32, ptr %100, i64 %102
  %104 = load i32, ptr %103, align 4
  store i32 %104, ptr %13, align 4
  %105 = load ptr, ptr %19, align 8
  %106 = icmp ne ptr %105, null
  br i1 %106, label %107, label %121

107:                                              ; preds = %80
  %108 = load ptr, ptr %19, align 8
  %109 = load i32, ptr %18, align 4
  %110 = mul nsw i32 2, %109
  %111 = sext i32 %110 to i64
  %112 = getelementptr inbounds i32, ptr %108, i64 %111
  %113 = load i32, ptr %112, align 4
  store i32 %113, ptr %16, align 4
  %114 = load ptr, ptr %19, align 8
  %115 = load i32, ptr %18, align 4
  %116 = mul nsw i32 2, %115
  %117 = add nsw i32 %116, 1
  %118 = sext i32 %117 to i64
  %119 = getelementptr inbounds i32, ptr %114, i64 %118
  %120 = load i32, ptr %119, align 4
  store i32 %120, ptr %17, align 4
  br label %121

121:                                              ; preds = %107, %80
  %122 = load i32, ptr %10, align 4
  %123 = load i32, ptr %11, align 4
  %124 = icmp sgt i32 %122, %123
  br i1 %124, label %125, label %126

125:                                              ; preds = %121
  br label %295

126:                                              ; preds = %121
  %127 = load ptr, ptr %7, align 8
  %128 = load i32, ptr %10, align 4
  %129 = mul nsw i32 1, %128
  %130 = sext i32 %129 to i64
  %131 = getelementptr inbounds i8, ptr %127, i64 %130
  store ptr %131, ptr %20, align 8
  %132 = load ptr, ptr %7, align 8
  %133 = load i32, ptr %11, align 4
  %134 = sext i32 %133 to i64
  %135 = getelementptr inbounds i8, ptr %132, i64 %134
  store ptr %135, ptr %25, align 8
  %136 = load i32, ptr %12, align 4
  %137 = and i32 %136, 65535
  store i32 %137, ptr %27, align 4
  %138 = load i32, ptr %13, align 4
  %139 = and i32 %138, 65535
  store i32 %139, ptr %28, align 4
  %140 = load i32, ptr %13, align 4
  %141 = ashr i32 %140, 13
  %142 = and i32 %141, -8
  store i32 %142, ptr %23, align 4
  %143 = load i32, ptr %12, align 4
  %144 = ashr i32 %143, 16
  store i32 %144, ptr %22, align 4
  %145 = load ptr, ptr %8, align 8
  %146 = load i32, ptr %23, align 4
  %147 = sext i32 %146 to i64
  %148 = getelementptr inbounds i8, ptr %145, i64 %147
  %149 = load ptr, ptr %148, align 8
  %150 = load i32, ptr %22, align 4
  %151 = mul nsw i32 1, %150
  %152 = sext i32 %151 to i64
  %153 = getelementptr inbounds i8, ptr %149, i64 %152
  store ptr %153, ptr %21, align 8
  %154 = load ptr, ptr %21, align 8
  %155 = load i32, ptr %24, align 4
  %156 = sext i32 %155 to i64
  %157 = getelementptr inbounds i8, ptr %154, i64 %156
  store ptr %157, ptr %26, align 8
  %158 = load i32, ptr %16, align 4
  %159 = load i32, ptr %12, align 4
  %160 = add nsw i32 %159, %158
  store i32 %160, ptr %12, align 4
  %161 = load i32, ptr %17, align 4
  %162 = load i32, ptr %13, align 4
  %163 = add nsw i32 %162, %161
  store i32 %163, ptr %13, align 4
  %164 = load ptr, ptr %21, align 8
  %165 = getelementptr inbounds i8, ptr %164, i64 0
  %166 = load i8, ptr %165, align 1
  %167 = zext i8 %166 to i32
  store i32 %167, ptr %29, align 4
  %168 = load ptr, ptr %21, align 8
  %169 = getelementptr inbounds i8, ptr %168, i64 1
  %170 = load i8, ptr %169, align 1
  %171 = zext i8 %170 to i32
  store i32 %171, ptr %30, align 4
  %172 = load ptr, ptr %26, align 8
  %173 = getelementptr inbounds i8, ptr %172, i64 0
  %174 = load i8, ptr %173, align 1
  %175 = zext i8 %174 to i32
  store i32 %175, ptr %31, align 4
  %176 = load ptr, ptr %26, align 8
  %177 = getelementptr inbounds i8, ptr %176, i64 1
  %178 = load i8, ptr %177, align 1
  %179 = zext i8 %178 to i32
  store i32 %179, ptr %32, align 4
  br label %180

180:                                              ; preds = %260, %126
  %181 = load ptr, ptr %20, align 8
  %182 = load ptr, ptr %25, align 8
  %183 = icmp ult ptr %181, %182
  br i1 %183, label %184, label %263

184:                                              ; preds = %180
  %185 = load i32, ptr %29, align 4
  %186 = load i32, ptr %28, align 4
  %187 = load i32, ptr %31, align 4
  %188 = load i32, ptr %29, align 4
  %189 = sub nsw i32 %187, %188
  %190 = mul nsw i32 %186, %189
  %191 = add nsw i32 %190, 32768
  %192 = ashr i32 %191, 16
  %193 = add nsw i32 %185, %192
  store i32 %193, ptr %33, align 4
  %194 = load i32, ptr %30, align 4
  %195 = load i32, ptr %28, align 4
  %196 = load i32, ptr %32, align 4
  %197 = load i32, ptr %30, align 4
  %198 = sub nsw i32 %196, %197
  %199 = mul nsw i32 %195, %198
  %200 = add nsw i32 %199, 32768
  %201 = ashr i32 %200, 16
  %202 = add nsw i32 %194, %201
  store i32 %202, ptr %34, align 4
  %203 = load i32, ptr %33, align 4
  %204 = load i32, ptr %27, align 4
  %205 = load i32, ptr %34, align 4
  %206 = load i32, ptr %33, align 4
  %207 = sub nsw i32 %205, %206
  %208 = mul nsw i32 %204, %207
  %209 = add nsw i32 %208, 32768
  %210 = ashr i32 %209, 16
  %211 = add nsw i32 %203, %210
  store i32 %211, ptr %35, align 4
  %212 = load i32, ptr %12, align 4
  %213 = and i32 %212, 65535
  store i32 %213, ptr %27, align 4
  %214 = load i32, ptr %13, align 4
  %215 = and i32 %214, 65535
  store i32 %215, ptr %28, align 4
  %216 = load i32, ptr %13, align 4
  %217 = ashr i32 %216, 13
  %218 = and i32 %217, -8
  store i32 %218, ptr %23, align 4
  %219 = load i32, ptr %12, align 4
  %220 = ashr i32 %219, 16
  store i32 %220, ptr %22, align 4
  %221 = load ptr, ptr %8, align 8
  %222 = load i32, ptr %23, align 4
  %223 = sext i32 %222 to i64
  %224 = getelementptr inbounds i8, ptr %221, i64 %223
  %225 = load ptr, ptr %224, align 8
  %226 = load i32, ptr %22, align 4
  %227 = mul nsw i32 1, %226
  %228 = sext i32 %227 to i64
  %229 = getelementptr inbounds i8, ptr %225, i64 %228
  store ptr %229, ptr %21, align 8
  %230 = load ptr, ptr %21, align 8
  %231 = load i32, ptr %24, align 4
  %232 = sext i32 %231 to i64
  %233 = getelementptr inbounds i8, ptr %230, i64 %232
  store ptr %233, ptr %26, align 8
  %234 = load i32, ptr %16, align 4
  %235 = load i32, ptr %12, align 4
  %236 = add nsw i32 %235, %234
  store i32 %236, ptr %12, align 4
  %237 = load i32, ptr %17, align 4
  %238 = load i32, ptr %13, align 4
  %239 = add nsw i32 %238, %237
  store i32 %239, ptr %13, align 4
  %240 = load ptr, ptr %21, align 8
  %241 = getelementptr inbounds i8, ptr %240, i64 0
  %242 = load i8, ptr %241, align 1
  %243 = zext i8 %242 to i32
  store i32 %243, ptr %29, align 4
  %244 = load ptr, ptr %21, align 8
  %245 = getelementptr inbounds i8, ptr %244, i64 1
  %246 = load i8, ptr %245, align 1
  %247 = zext i8 %246 to i32
  store i32 %247, ptr %30, align 4
  %248 = load ptr, ptr %26, align 8
  %249 = getelementptr inbounds i8, ptr %248, i64 0
  %250 = load i8, ptr %249, align 1
  %251 = zext i8 %250 to i32
  store i32 %251, ptr %31, align 4
  %252 = load ptr, ptr %26, align 8
  %253 = getelementptr inbounds i8, ptr %252, i64 1
  %254 = load i8, ptr %253, align 1
  %255 = zext i8 %254 to i32
  store i32 %255, ptr %32, align 4
  %256 = load i32, ptr %35, align 4
  %257 = trunc i32 %256 to i8
  %258 = load ptr, ptr %20, align 8
  %259 = getelementptr inbounds i8, ptr %258, i64 0
  store i8 %257, ptr %259, align 1
  br label %260

260:                                              ; preds = %184
  %261 = load ptr, ptr %20, align 8
  %262 = getelementptr inbounds i8, ptr %261, i32 1
  store ptr %262, ptr %20, align 8
  br label %180, !llvm.loop !6

263:                                              ; preds = %180
  %264 = load i32, ptr %29, align 4
  %265 = load i32, ptr %28, align 4
  %266 = load i32, ptr %31, align 4
  %267 = load i32, ptr %29, align 4
  %268 = sub nsw i32 %266, %267
  %269 = mul nsw i32 %265, %268
  %270 = add nsw i32 %269, 32768
  %271 = ashr i32 %270, 16
  %272 = add nsw i32 %264, %271
  store i32 %272, ptr %33, align 4
  %273 = load i32, ptr %30, align 4
  %274 = load i32, ptr %28, align 4
  %275 = load i32, ptr %32, align 4
  %276 = load i32, ptr %30, align 4
  %277 = sub nsw i32 %275, %276
  %278 = mul nsw i32 %274, %277
  %279 = add nsw i32 %278, 32768
  %280 = ashr i32 %279, 16
  %281 = add nsw i32 %273, %280
  store i32 %281, ptr %34, align 4
  %282 = load i32, ptr %33, align 4
  %283 = load i32, ptr %27, align 4
  %284 = load i32, ptr %34, align 4
  %285 = load i32, ptr %33, align 4
  %286 = sub nsw i32 %284, %285
  %287 = mul nsw i32 %283, %286
  %288 = add nsw i32 %287, 32768
  %289 = ashr i32 %288, 16
  %290 = add nsw i32 %282, %289
  store i32 %290, ptr %35, align 4
  %291 = load i32, ptr %35, align 4
  %292 = trunc i32 %291 to i8
  %293 = load ptr, ptr %20, align 8
  %294 = getelementptr inbounds i8, ptr %293, i64 0
  store i8 %292, ptr %294, align 1
  br label %295

295:                                              ; preds = %263, %125
  %296 = load i32, ptr %18, align 4
  %297 = add nsw i32 %296, 1
  store i32 %297, ptr %18, align 4
  br label %76, !llvm.loop !8

298:                                              ; preds = %76
  ret i32 0
}