; Function Attrs: nofree norecurse nosync nounwind memory(readwrite, inaccessiblemem: none) uwtable
define hidden noundef i32 @mlib_ImageAffine_u8_1ch_bl(ptr nocapture noundef readonly %0) local_unnamed_addr #0 {
  %2 = getelementptr inbounds i8, ptr %0, i64 40
  %3 = load ptr, ptr %2, align 8
  %4 = getelementptr inbounds i8, ptr %0, i64 48
  %5 = load ptr, ptr %4, align 8
  %6 = getelementptr inbounds i8, ptr %0, i64 56
  %7 = load ptr, ptr %6, align 8
  %8 = getelementptr inbounds i8, ptr %0, i64 64
  %9 = load ptr, ptr %8, align 8
  %10 = getelementptr inbounds i8, ptr %0, i64 24
  %11 = load ptr, ptr %10, align 8
  %12 = getelementptr inbounds i8, ptr %0, i64 72
  %13 = load i32, ptr %12, align 8
  %14 = getelementptr inbounds i8, ptr %0, i64 76
  %15 = load i32, ptr %14, align 4
  %16 = getelementptr inbounds i8, ptr %0, i64 104
  %17 = load ptr, ptr %16, align 8
  %.not142 = icmp sgt i32 %13, %15
  br i1 %.not142, label %._crit_edge149, label %.lr.ph148

.lr.ph148:                                        ; preds = %1
  %18 = getelementptr inbounds i8, ptr %0, i64 92
  %19 = load i32, ptr %18, align 4
  %20 = getelementptr inbounds i8, ptr %0, i64 84
  %21 = load i32, ptr %20, align 4
  %22 = getelementptr inbounds i8, ptr %0, i64 80
  %23 = load i32, ptr %22, align 8
  %24 = getelementptr inbounds i8, ptr %0, i64 96
  %25 = load i32, ptr %24, align 8
  %26 = getelementptr inbounds i8, ptr %0, i64 32
  %27 = load ptr, ptr %26, align 8
  %28 = sext i32 %25 to i64
  %.not118 = icmp eq ptr %17, null
  %29 = sext i32 %19 to i64
  %30 = sext i32 %13 to i64
  %31 = add i32 %15, 1
  br label %32

32:                                               ; preds = %.lr.ph148, %121
  %indvars.iv = phi i64 [ %30, %.lr.ph148 ], [ %indvars.iv.next, %121 ]
  %.0107146 = phi ptr [ %27, %.lr.ph148 ], [ %33, %121 ]
  %.0112144 = phi i32 [ %21, %.lr.ph148 ], [ %.1, %121 ]
  %.0113143 = phi i32 [ %23, %.lr.ph148 ], [ %.1114, %121 ]
  %33 = getelementptr inbounds i8, ptr %.0107146, i64 %28
  %34 = getelementptr inbounds i32, ptr %3, i64 %indvars.iv
  %35 = load i32, ptr %34, align 4
  %36 = getelementptr inbounds i32, ptr %5, i64 %indvars.iv
  %37 = load i32, ptr %36, align 4
  %38 = getelementptr inbounds i32, ptr %7, i64 %indvars.iv
  %39 = load i32, ptr %38, align 4
  %40 = getelementptr inbounds i32, ptr %9, i64 %indvars.iv
  %41 = load i32, ptr %40, align 4
  br i1 %.not118, label %49, label %42

42:                                               ; preds = %32
  %43 = shl nsw i64 %indvars.iv, 1
  %44 = getelementptr inbounds i32, ptr %17, i64 %43
  %45 = load i32, ptr %44, align 4
  %46 = or disjoint i64 %43, 1
  %47 = getelementptr inbounds i32, ptr %17, i64 %46
  %48 = load i32, ptr %47, align 4
  br label %49

49:                                               ; preds = %42, %32
  %.1114 = phi i32 [ %45, %42 ], [ %.0113143, %32 ]
  %.1 = phi i32 [ %48, %42 ], [ %.0112144, %32 ]
  %50 = icmp sgt i32 %35, %37
  br i1 %50, label %121, label %51

51:                                               ; preds = %49
  %52 = sext i32 %35 to i64
  %53 = getelementptr inbounds i8, ptr %33, i64 %52
  %54 = sext i32 %37 to i64
  %55 = getelementptr inbounds i8, ptr %33, i64 %54
  %56 = ashr i32 %41, 13
  %57 = and i32 %56, -8
  %58 = ashr i32 %39, 16
  %59 = sext i32 %57 to i64
  %60 = getelementptr inbounds i8, ptr %11, i64 %59
  %61 = load ptr, ptr %60, align 8
  %62 = sext i32 %58 to i64
  %63 = getelementptr inbounds i8, ptr %61, i64 %62
  %64 = getelementptr inbounds i8, ptr %63, i64 %29
  %65 = load i8, ptr %63, align 1
  %66 = getelementptr inbounds i8, ptr %63, i64 1
  %67 = load i8, ptr %66, align 1
  %68 = load i8, ptr %64, align 1
  %69 = getelementptr inbounds i8, ptr %64, i64 1
  %70 = load i8, ptr %69, align 1
  %.0121 = zext i8 %70 to i32
  %.0102122 = zext i8 %68 to i32
  %.0103123 = zext i8 %67 to i32
  %.0104124 = zext i8 %65 to i32
  %.0105125 = and i32 %41, 65535
  %.0106126 = and i32 %39, 65535
  %71 = icmp slt i32 %35, %37
  br i1 %71, label %.lr.ph, label %._crit_edge

.lr.ph:                                           ; preds = %51, %.lr.ph
  %.0106135 = phi i32 [ %.0106, %.lr.ph ], [ %.0106126, %51 ]
  %.0105134 = phi i32 [ %.0105, %.lr.ph ], [ %.0105125, %51 ]
  %.0104133 = phi i32 [ %.0104, %.lr.ph ], [ %.0104124, %51 ]
  %.0103132 = phi i32 [ %.0103, %.lr.ph ], [ %.0103123, %51 ]
  %.0102131 = phi i32 [ %.0102, %.lr.ph ], [ %.0102122, %51 ]
  %.0130 = phi i32 [ %.0, %.lr.ph ], [ %.0121, %51 ]
  %.pn119129 = phi i32 [ %.0108, %.lr.ph ], [ %39, %51 ]
  %.0109128 = phi ptr [ %103, %.lr.ph ], [ %53, %51 ]
  %.pn127 = phi i32 [ %.0110, %.lr.ph ], [ %41, %51 ]
  %.0108 = add nsw i32 %.pn119129, %.1114
  %.0110 = add nsw i32 %.pn127, %.1
  %72 = sub nsw i32 %.0102131, %.0104133
  %73 = mul nsw i32 %72, %.0105134
  %74 = add nsw i32 %73, 32768
  %75 = ashr i32 %74, 16
  %76 = add nsw i32 %75, %.0104133
  %77 = sub nsw i32 %.0130, %.0103132
  %78 = mul nsw i32 %77, %.0105134
  %79 = add nsw i32 %78, 32768
  %80 = ashr i32 %79, 16
  %81 = add nsw i32 %80, %.0103132
  %82 = sub nsw i32 %81, %76
  %83 = mul nsw i32 %82, %.0106135
  %84 = add nsw i32 %83, 32768
  %85 = lshr i32 %84, 16
  %86 = add nsw i32 %85, %76
  %87 = ashr i32 %.0110, 13
  %88 = and i32 %87, -8
  %89 = ashr i32 %.0108, 16
  %90 = sext i32 %88 to i64
  %91 = getelementptr inbounds i8, ptr %11, i64 %90
  %92 = load ptr, ptr %91, align 8
  %93 = sext i32 %89 to i64
  %94 = getelementptr inbounds i8, ptr %92, i64 %93
  %95 = getelementptr inbounds i8, ptr %94, i64 %29
  %96 = load i8, ptr %94, align 1
  %97 = getelementptr inbounds i8, ptr %94, i64 1
  %98 = load i8, ptr %97, align 1
  %99 = load i8, ptr %95, align 1
  %100 = getelementptr inbounds i8, ptr %95, i64 1
  %101 = load i8, ptr %100, align 1
  %102 = trunc i32 %86 to i8
  store i8 %102, ptr %.0109128, align 1
  %103 = getelementptr inbounds i8, ptr %.0109128, i64 1
  %.0 = zext i8 %101 to i32
  %.0102 = zext i8 %99 to i32
  %.0103 = zext i8 %98 to i32
  %.0104 = zext i8 %96 to i32
  %.0105 = and i32 %.0110, 65535
  %.0106 = and i32 %.0108, 65535
  %104 = icmp ult ptr %103, %55
  br i1 %104, label %.lr.ph, label %._crit_edge, !llvm.loop !6

._crit_edge:                                      ; preds = %.lr.ph, %51
  %.0109.lcssa = phi ptr [ %53, %51 ], [ %103, %.lr.ph ]
  %.0.lcssa = phi i32 [ %.0121, %51 ], [ %.0, %.lr.ph ]
  %.0102.lcssa = phi i32 [ %.0102122, %51 ], [ %.0102, %.lr.ph ]
  %.0103.lcssa = phi i32 [ %.0103123, %51 ], [ %.0103, %.lr.ph ]
  %.0104.lcssa = phi i32 [ %.0104124, %51 ], [ %.0104, %.lr.ph ]
  %.0105.lcssa = phi i32 [ %.0105125, %51 ], [ %.0105, %.lr.ph ]
  %.0106.lcssa = phi i32 [ %.0106126, %51 ], [ %.0106, %.lr.ph ]
  %105 = sub nsw i32 %.0102.lcssa, %.0104.lcssa
  %106 = mul nsw i32 %105, %.0105.lcssa
  %107 = add nsw i32 %106, 32768
  %108 = ashr i32 %107, 16
  %109 = add nsw i32 %108, %.0104.lcssa
  %110 = sub nsw i32 %.0.lcssa, %.0103.lcssa
  %111 = mul nsw i32 %110, %.0105.lcssa
  %112 = add nsw i32 %111, 32768
  %113 = ashr i32 %112, 16
  %114 = add nsw i32 %113, %.0103.lcssa
  %115 = sub nsw i32 %114, %109
  %116 = mul nsw i32 %115, %.0106.lcssa
  %117 = add nsw i32 %116, 32768
  %118 = lshr i32 %117, 16
  %119 = add nsw i32 %118, %109
  %120 = trunc i32 %119 to i8
  store i8 %120, ptr %.0109.lcssa, align 1
  br label %121

121:                                              ; preds = %49, %._crit_edge
  %indvars.iv.next = add nsw i64 %indvars.iv, 1
  %lftr.wideiv = trunc i64 %indvars.iv.next to i32
  %exitcond.not = icmp eq i32 %31, %lftr.wideiv
  br i1 %exitcond.not, label %._crit_edge149, label %32, !llvm.loop !8

._crit_edge149:                                   ; preds = %121, %1
  ret i32 0
}